; Function Attrs: mustprogress nounwind uwtable
define dso_local void @_ZN4llvm15InstrProfSymtab36initVTableNamesFromCompressedStringsENS_9StringRefE(ptr dead_on_unwind noalias writable sret(%"class.llvm::Error") align 8 %0, ptr noundef nonnull align 8 dereferenceable(385) %1, ptr %2, i64 %3) local_unnamed_addr #0 align 2 {
  %5 = alloca %"class.std::function.158", align 8
  %6 = getelementptr inbounds nuw i8, ptr %5, i64 16
  %7 = getelementptr inbounds nuw i8, ptr %5, i64 24
  %8 = getelementptr inbounds nuw i8, ptr %5, i64 8
  store i64 0, ptr %8, align 8
  %9 = tail call noalias noundef nonnull dereferenceable(24) ptr @_Znwm(i64 noundef 24) #29
  store i64 ptrtoint (ptr @_ZN4llvm15InstrProfSymtab13addVTableNameENS_9StringRefE to i64), ptr %9, align 8
  %.repack5.i.i.i.i = getelementptr inbounds nuw i8, ptr %9, i64 8
  store i64 0, ptr %.repack5.i.i.i.i, align 8
  %10 = getelementptr inbounds nuw i8, ptr %9, i64 16
  %11 = ptrtoint ptr %1 to i64
  store i64 %11, ptr %10, align 8
  store ptr %9, ptr %5, align 8
  store ptr @_ZNSt17_Function_handlerIFN4llvm5ErrorENS0_9StringRefEESt5_BindIFMNS0_15InstrProfSymtabEFS1_S2_EPS5_St12_PlaceholderILi1EEEEE9_M_invokeERKSt9_Any_dataOS2_, ptr %7, align 8
  store ptr @_ZNSt17_Function_handlerIFN4llvm5ErrorENS0_9StringRefEESt5_BindIFMNS0_15InstrProfSymtabEFS1_S2_EPS5_St12_PlaceholderILi1EEEEE10_M_managerERSt9_Any_dataRKSE_St18_Manager_operation, ptr %6, align 8
  call fastcc void @_ZN4llvmL20readAndDecodeStringsENS_9StringRefESt8functionIFNS_5ErrorES0_EE(ptr dead_on_unwind noalias writable align 8 %0, ptr %2, i64 %3, ptr noundef %5)
  %12 = load ptr, ptr %6, align 8
  %.not.i.i = icmp eq ptr %12, null
  br i1 %.not.i.i, label %_ZNSt8functionIFN4llvm5ErrorENS0_9StringRefEEED2Ev.exit, label %13

13:                                               ; preds = %4
  %14 = call noundef zeroext i1 %12(ptr noundef nonnull align 8 dereferenceable(32) %5, ptr noundef nonnull align 8 dereferenceable(32) %5, i32 noundef 3) #28
  br label %_ZNSt8functionIFN4llvm5ErrorENS0_9StringRefEEED2Ev.exit

_ZNSt8functionIFN4llvm5ErrorENS0_9StringRefEEED2Ev.exit: ; preds = %4, %13
  ret void
}